target datalayout = "e-m:e-p270:32:32-p271:32:32-p272:64:64-i64:64-i128:128-f80:128-n8:16:32:64-S128"
target triple = "x86_64-unknown-linux-gnu"

module asm ".section\09\22.initcall6.init\22, \22a\22\09\09"
module asm "__initcall__kmod_dm_zero__401_78_dm_zero_init6:\09\09\09"
module asm ".long\09dm_zero_init - .\09"
module asm ".previous\09\09\09\09\09"

%struct.target_type = type { i64, ptr, ptr, [3 x i32], ptr, ptr, ptr, ptr, ptr, ptr, ptr, ptr, ptr, ptr, ptr, ptr, ptr, ptr, ptr, ptr, ptr, ptr, ptr, ptr, ptr, ptr, %struct.list_head }
%struct.list_head = type { ptr, ptr }
%struct.bvec_iter = type <{ i64, i32, i32, i32 }>

@__UNIQUE_ID___addressable_dm_zero_init402 = internal global ptr @dm_zero_init, section ".discard.addressable", align 8
@zero_target = internal global %struct.target_type { i64 128, ptr @.str, ptr null, [3 x i32] [i32 1, i32 2, i32 0], ptr @zero_ctr, ptr null, ptr @zero_map, ptr null, ptr null, ptr null, ptr null, ptr null, ptr null, ptr null, ptr null, ptr null, ptr null, ptr null, ptr null, ptr null, ptr null, ptr null, ptr @zero_io_hints, ptr null, ptr null, ptr null, %struct.list_head zeroinitializer }, align 8
@__exitcall_dm_zero_exit = internal global ptr @dm_zero_exit, section ".exitcall.exit", align 8
@__UNIQUE_ID_author403 = internal constant [42 x i8] c"dm_zero.author=Jana Saout <jana@saout.de>\00", section ".modinfo", align 1
@__UNIQUE_ID_description404 = internal constant [63 x i8] c"dm_zero.description=device-mapper dummy target returning zeros\00", section ".modinfo", align 1
@__UNIQUE_ID_file405 = internal constant [32 x i8] c"dm_zero.file=drivers/md/dm-zero\00", section ".modinfo", align 1
@__UNIQUE_ID_license406 = internal constant [20 x i8] c"dm_zero.license=GPL\00", section ".modinfo", align 1
@.str = private unnamed_addr constant [5 x i8] c"zero\00", align 1
@.str.1 = private unnamed_addr constant [22 x i8] c"No arguments required\00", align 1
@llvm.compiler.used = appending global [7 x ptr] [ptr @__UNIQUE_ID___addressable_dm_zero_init402, ptr @__UNIQUE_ID_author403, ptr @__UNIQUE_ID_description404, ptr @__UNIQUE_ID_file405, ptr @__UNIQUE_ID_license406, ptr @__exitcall_dm_zero_exit, ptr @dm_zero_exit], section "llvm.metadata"

; Function Attrs: cold fn_ret_thunk_extern nounwind null_pointer_is_valid optsize
define internal i32 @dm_zero_init() #0 section ".init.text" align 16 {
  %1 = tail call i32 @dm_register_target(ptr noundef nonnull @zero_target) #5
  ret i32 %1
}

; Function Attrs: cold fn_ret_thunk_extern nounwind null_pointer_is_valid optsize
define internal void @dm_zero_exit() #0 section ".exit.text" align 16 {
  tail call void @dm_unregister_target(ptr noundef nonnull @zero_target) #5
  ret void
}

; Function Attrs: null_pointer_is_valid
declare dso_local void @dm_unregister_target(ptr noundef) local_unnamed_addr #1

; Function Attrs: null_pointer_is_valid
declare dso_local i32 @dm_register_target(ptr noundef) local_unnamed_addr #1

; Function Attrs: fn_ret_thunk_extern mustprogress nofree norecurse nosync nounwind null_pointer_is_valid willreturn memory(argmem: readwrite)
define internal noundef i32 @zero_ctr(ptr nocapture noundef %0, i32 noundef %1, ptr nocapture readnone %2) #2 align 16 {
  %4 = icmp eq i32 %1, 0
  br i1 %4, label %7, label %5

5:                                                ; preds = %3
  %6 = getelementptr inbounds i8, ptr %0, i64 64
  store ptr @.str.1, ptr %6, align 8
  br label %12

7:                                                ; preds = %3
  %8 = getelementptr inbounds i8, ptr %0, i64 40
  store i32 1, ptr %8, align 8
  %9 = getelementptr inbounds i8, ptr %0, i64 72
  %10 = load i16, ptr %9, align 8
  %11 = or i16 %10, 2
  store i16 %11, ptr %9, align 8
  br label %12

12:                                               ; preds = %7, %5
  %13 = phi i32 [ -22, %5 ], [ 0, %7 ]
  ret i32 %13
}

; Function Attrs: fn_ret_thunk_extern nounwind null_pointer_is_valid
define internal noundef i32 @zero_map(ptr nocapture readnone %0, ptr noundef %1) #3 align 16 {
  %3 = getelementptr inbounds i8, ptr %1, i64 16
  %4 = load i32, ptr %3, align 8
  %5 = trunc i32 %4 to i8
  switch i8 %5, label %12 [
    i8 0, label %6
    i8 1, label %11
    i8 3, label %11
  ]

6:                                                ; preds = %2
  %7 = and i32 %4, 524288
  %8 = icmp eq i32 %7, 0
  br i1 %8, label %9, label %12

9:                                                ; preds = %6
  %10 = getelementptr inbounds i8, ptr %1, i64 32
  tail call void @zero_fill_bio_iter(ptr noundef %1, ptr noundef byval(%struct.bvec_iter) align 8 %10) #5
  br label %11

11:                                               ; preds = %9, %2, %2
  tail call void @bio_endio(ptr noundef %1) #5
  br label %12

12:                                               ; preds = %11, %6, %2
  %13 = phi i32 [ 0, %11 ], [ 4, %6 ], [ 4, %2 ]
  ret i32 %13
}

; Function Attrs: fn_ret_thunk_extern mustprogress nofree norecurse nosync nounwind null_pointer_is_valid willreturn memory(argmem: write)
define internal void @zero_io_hints(ptr nocapture readnone %0, ptr nocapture noundef writeonly %1) #4 align 16 {
  %3 = getelementptr inbounds i8, ptr %1, i64 68
  store i32 -1, ptr %3, align 4
  %4 = getelementptr inbounds i8, ptr %1, i64 72
  store i32 -1, ptr %4, align 8
  %5 = getelementptr inbounds i8, ptr %1, i64 88
  store i32 512, ptr %5, align 8
  ret void
}

; Function Attrs: null_pointer_is_valid
declare dso_local void @bio_endio(ptr noundef) local_unnamed_addr #1

; Function Attrs: null_pointer_is_valid
declare dso_local void @zero_fill_bio_iter(ptr noundef, ptr noundef byval(%struct.bvec_iter) align 8) local_unnamed_addr #1


!llvm.module.flags = !{!0, !1, !2, !3, !4}

!0 = !{i32 1, !"wchar_size", i32 2}
!1 = !{i32 8, !"cf-protection-branch", i32 1}
!2 = !{i32 4, !"function_return_thunk_extern", i32 1}
!3 = !{i32 4, !"indirect_branch_cs_prefix", i32 1}
!4 = !{i32 4, !"SkipRaxSetup", i32 1}
